; Function Attrs: mustprogress uwtable
define void @utrans_register_77(ptr noundef %0, ptr noundef readonly %1) local_unnamed_addr #4 {
  %3 = icmp eq ptr %1, null
  br i1 %3, label %8, label %4

4:                                                ; preds = %2
  %5 = load i32, ptr %1, align 4, !tbaa !23
  %6 = icmp slt i32 %5, 1
  br i1 %6, label %7, label %8

7:                                                ; preds = %4
  tail call void @_ZN6icu_7714Transliterator16registerInstanceEPS0_(ptr noundef %0)
  br label %8

8:                                                ; preds = %2, %4, %7
  ret void
}